target datalayout = "e-m:e-p270:32:32-p271:32:32-p272:64:64-i64:64-i128:128-f80:128-n8:16:32:64-S128"
target triple = "x86_64-pc-linux-gnu"

%struct.IAMFDemuxContext = type { %struct.IAMFContext, ptr, i64, ptr, i64, ptr, i64 }
%struct.IAMFContext = type { ptr, i32, ptr, i32, ptr, i32, ptr, i32 }

; Function Attrs: nounwind uwtable
define void @ff_iamf_read_deinit(ptr noundef %0) #0 {
  %2 = alloca ptr, align 8
  %3 = alloca ptr, align 8
  store ptr %0, ptr %2, align 8, !tbaa !9
  call void @llvm.lifetime.start.p0(i64 8, ptr %3) #9
  %4 = load ptr, ptr %2, align 8, !tbaa !9
  %5 = getelementptr inbounds nuw %struct.IAMFDemuxContext, ptr %4, i32 0, i32 0
  store ptr %5, ptr %3, align 8, !tbaa !110
  %6 = load ptr, ptr %3, align 8, !tbaa !110
  call void @ff_iamf_uninit_context(ptr noundef %6)
  %7 = load ptr, ptr %2, align 8, !tbaa !9
  %8 = getelementptr inbounds nuw %struct.IAMFDemuxContext, ptr %7, i32 0, i32 1
  call void @av_freep(ptr noundef %8)
  %9 = load ptr, ptr %2, align 8, !tbaa !9
  %10 = getelementptr inbounds nuw %struct.IAMFDemuxContext, ptr %9, i32 0, i32 2
  store i64 0, ptr %10, align 8, !tbaa !17
  %11 = load ptr, ptr %2, align 8, !tbaa !9
  %12 = getelementptr inbounds nuw %struct.IAMFDemuxContext, ptr %11, i32 0, i32 3
  call void @av_freep(ptr noundef %12)
  %13 = load ptr, ptr %2, align 8, !tbaa !9
  %14 = getelementptr inbounds nuw %struct.IAMFDemuxContext, ptr %13, i32 0, i32 4
  store i64 0, ptr %14, align 8, !tbaa !27
  %15 = load ptr, ptr %2, align 8, !tbaa !9
  %16 = getelementptr inbounds nuw %struct.IAMFDemuxContext, ptr %15, i32 0, i32 5
  call void @av_freep(ptr noundef %16)
  %17 = load ptr, ptr %2, align 8, !tbaa !9
  %18 = getelementptr inbounds nuw %struct.IAMFDemuxContext, ptr %17, i32 0, i32 6
  store i64 0, ptr %18, align 8, !tbaa !28
  call void @llvm.lifetime.end.p0(i64 8, ptr %3) #9
  ret void
}