; Function Attrs: nounwind uwtable
define void @ff_iamf_read_deinit(ptr noundef %0) local_unnamed_addr #0 {
  tail call void @ff_iamf_uninit_context(ptr noundef %0) #7
  %2 = getelementptr inbounds nuw i8, ptr %0, i64 64
  tail call void @av_freep(ptr noundef nonnull %2) #7
  %3 = getelementptr inbounds nuw i8, ptr %0, i64 72
  store i64 0, ptr %3, align 8, !tbaa !46
  %4 = getelementptr inbounds nuw i8, ptr %0, i64 80
  tail call void @av_freep(ptr noundef nonnull %4) #7
  %5 = getelementptr inbounds nuw i8, ptr %0, i64 88
  store i64 0, ptr %5, align 8, !tbaa !48
  %6 = getelementptr inbounds nuw i8, ptr %0, i64 96
  tail call void @av_freep(ptr noundef nonnull %6) #7
  %7 = getelementptr inbounds nuw i8, ptr %0, i64 104
  store i64 0, ptr %7, align 8, !tbaa !50
  ret void
}